; Function Attrs: mustprogress nounwind uwtable
define internal void @"_ZN7doctest6detail12ContextScopeIZL20DOCTEST_ANON_FUNC_21vE3$_2ED0Ev"(ptr noundef nonnull align 8 dereferenceable(24) initializes((0, 8)) %0) unnamed_addr #5 align 2 personality ptr @__gxx_personality_v0 {
  store ptr getelementptr inbounds nuw inrange(-16, 24) (i8, ptr @"_ZTVN7doctest6detail12ContextScopeIZL20DOCTEST_ANON_FUNC_21vE3$_2EE", i64 16), ptr %0, align 8, !tbaa !4
  %2 = getelementptr inbounds nuw i8, ptr %0, i64 8
  %3 = load i8, ptr %2, align 8, !tbaa !14, !range !18, !noundef !19
  %4 = trunc nuw i8 %3 to i1
  br i1 %4, label %5, label %"_ZN7doctest6detail12ContextScopeIZL20DOCTEST_ANON_FUNC_21vE3$_2ED2Ev.exit"

5:                                                ; preds = %1
  invoke void @_ZN7doctest6detail16ContextScopeBase7destroyEv(ptr noundef nonnull align 8 dereferenceable(24) %0)
          to label %"_ZN7doctest6detail12ContextScopeIZL20DOCTEST_ANON_FUNC_21vE3$_2ED2Ev.exit" unwind label %6

6:                                                ; preds = %5
  %7 = landingpad { ptr, i32 }
          catch ptr null
  %8 = extractvalue { ptr, i32 } %7, 0
  tail call void @__clang_call_terminate(ptr %8) #29
  unreachable

"_ZN7doctest6detail12ContextScopeIZL20DOCTEST_ANON_FUNC_21vE3$_2ED2Ev.exit": ; preds = %1, %5
  tail call void @_ZN7doctest13IContextScopeD2Ev(ptr noundef nonnull align 8 dereferenceable(24) %0) #28
  tail call void @_ZdlPv(ptr noundef nonnull %0) #31
  ret void
}